target datalayout = "e-m:e-p270:32:32-p271:32:32-p272:64:64-i64:64-i128:128-f80:128-n8:16:32:64-S128"
target triple = "x86_64-pc-linux-gnu"

%struct.OSSL_TIME = type { i64 }
%struct.ssl_session_st = type { i32, i64, [64 x i8], [512 x i8], i64, [32 x i8], i64, [32 x i8], ptr, ptr, i32, ptr, ptr, ptr, i64, %struct.OSSL_TIME, %struct.OSSL_TIME, %struct.OSSL_TIME, i32, ptr, i64, i32, %struct.crypto_ex_data_st, %struct.anon, ptr, ptr, i64, i32, ptr, ptr, ptr, %struct.CRYPTO_REF_COUNT }
%struct.crypto_ex_data_st = type { ptr, ptr }
%struct.anon = type { ptr, ptr, i64, i64, i32, i32, ptr, i64, i8 }
%struct.CRYPTO_REF_COUNT = type { i32 }

; Function Attrs: nounwind uwtable
define void @SSL_SESSION_get0_alpn_selected(ptr noundef %0, ptr noundef %1, ptr noundef %2) #0 {
  %4 = alloca ptr, align 8
  %5 = alloca ptr, align 8
  %6 = alloca ptr, align 8
  store ptr %0, ptr %4, align 8, !tbaa !3
  store ptr %1, ptr %5, align 8, !tbaa !167
  store ptr %2, ptr %6, align 8, !tbaa !169
  %7 = load ptr, ptr %4, align 8, !tbaa !3
  %8 = getelementptr inbounds nuw %struct.ssl_session_st, ptr %7, i32 0, i32 23
  %9 = getelementptr inbounds nuw %struct.anon, ptr %8, i32 0, i32 6
  %10 = load ptr, ptr %9, align 8, !tbaa !88
  %11 = load ptr, ptr %5, align 8, !tbaa !167
  store ptr %10, ptr %11, align 8, !tbaa !127
  %12 = load ptr, ptr %4, align 8, !tbaa !3
  %13 = getelementptr inbounds nuw %struct.ssl_session_st, ptr %12, i32 0, i32 23
  %14 = getelementptr inbounds nuw %struct.anon, ptr %13, i32 0, i32 7
  %15 = load i64, ptr %14, align 8, !tbaa !99
  %16 = load ptr, ptr %6, align 8, !tbaa !169
  store i64 %15, ptr %16, align 8, !tbaa !9
  ret void
}