; Function Attrs: mustprogress nofree norecurse nosync nounwind willreturn memory(argmem: readwrite) uwtable
define void @SSL_SESSION_get0_alpn_selected(ptr noundef readonly captures(none) %0, ptr noundef writeonly captures(none) initializes((0, 8)) %1, ptr noundef writeonly captures(none) initializes((0, 8)) %2) local_unnamed_addr #0 {
  %4 = getelementptr inbounds nuw i8, ptr %0, i64 840
  %5 = load ptr, ptr %4, align 8, !tbaa !77
  store ptr %5, ptr %1, align 8, !tbaa !158
  %6 = getelementptr inbounds nuw i8, ptr %0, i64 848
  %7 = load i64, ptr %6, align 8, !tbaa !86
  store i64 %7, ptr %2, align 8, !tbaa !3
  ret void
}